target datalayout = "e-m:e-p270:32:32-p271:32:32-p272:64:64-i64:64-i128:128-f80:128-n8:16:32:64-S128"
target triple = "x86_64-pc-linux-gnu"

%struct.hf_register_info = type { ptr, %struct._header_field_info }
%struct._header_field_info = type { ptr, ptr, i32, i32, ptr, i64, ptr, i32, i32, i32, i32, ptr }
%struct._packet_info = type { ptr, ptr, i32, i32, %struct.nstime_t, %struct.nstime_t, %struct.nstime_t, i8, ptr, ptr, ptr, ptr, %struct._address, %struct._address, %struct._address, %struct._address, %struct._address, %struct._address, i32, ptr, i8, [3 x i8], %struct.anon, i32, i32, i32, i32, ptr, i8, ptr, ptr, i16, i16, i32, i32, i16, i32, i32, ptr, ptr, ptr, i8, i8, i16, i16, i16, i32, i16, i16, ptr, ptr, ptr, ptr, ptr, i32, i32 }
%struct.nstime_t = type { i64, i32 }
%struct._address = type { i32, i32, ptr, ptr }
%struct.anon = type { i8, [3 x i8] }

@proto_register_ioraw.hf = internal global [2 x %struct.hf_register_info] [%struct.hf_register_info { ptr @hf_ioraw_header, %struct._header_field_info { ptr @.str, ptr @.str.1, i32 0, i32 0, ptr null, i64 0, ptr null, i32 -1, i32 0, i32 0, i32 -1, ptr null } }, %struct.hf_register_info { ptr @hf_ioraw_data, %struct._header_field_info { ptr @.str.2, ptr @.str.3, i32 0, i32 0, ptr null, i64 0, ptr null, i32 -1, i32 0, i32 0, i32 -1, ptr null } }], align 16
@hf_ioraw_header = internal global i32 0, align 4
@.str = private unnamed_addr constant [7 x i8] c"Header\00", align 1
@.str.1 = private unnamed_addr constant [13 x i8] c"ioraw.header\00", align 1
@hf_ioraw_data = internal global i32 0, align 4
@.str.2 = private unnamed_addr constant [8 x i8] c"VarData\00", align 1
@.str.3 = private unnamed_addr constant [11 x i8] c"ioraw.data\00", align 1
@proto_register_ioraw.ett = internal global [1 x ptr] [ptr @ett_ioraw], align 8
@ett_ioraw = internal global i32 0, align 4
@.str.4 = private unnamed_addr constant [15 x i8] c"TwinCAT IO-RAW\00", align 1
@.str.5 = private unnamed_addr constant [7 x i8] c"IO-RAW\00", align 1
@.str.6 = private unnamed_addr constant [6 x i8] c"ioraw\00", align 1
@proto_ioraw = hidden global i32 0, align 4
@ioraw_handle = internal global ptr null, align 8
@.str.7 = private unnamed_addr constant [11 x i8] c"ecatf.type\00", align 1
@.str.8 = private unnamed_addr constant [5 x i8] c": %s\00", align 1
@.str.9 = private unnamed_addr constant [12 x i8] c"Raw IO Data\00", align 1

; Function Attrs: null_pointer_is_valid sspstrong uwtable
define hidden void @proto_register_ioraw() #0 {
  %1 = call i32 @proto_register_protocol(ptr noundef @.str.4, ptr noundef @.str.5, ptr noundef @.str.6)
  store i32 %1, ptr @proto_ioraw, align 4
  %2 = load i32, ptr @proto_ioraw, align 4
  call void @proto_register_field_array(i32 noundef %2, ptr noundef @proto_register_ioraw.hf, i32 noundef 2)
  call void @proto_register_subtree_array(ptr noundef @proto_register_ioraw.ett, i32 noundef 1)
  %3 = load i32, ptr @proto_ioraw, align 4
  %4 = call ptr @register_dissector(ptr noundef @.str.6, ptr noundef @dissect_ioraw, i32 noundef %3)
  store ptr %4, ptr @ioraw_handle, align 8
  ret void
}

; Function Attrs: null_pointer_is_valid
declare i32 @proto_register_protocol(ptr noundef, ptr noundef, ptr noundef) #1

; Function Attrs: null_pointer_is_valid
declare void @proto_register_field_array(i32 noundef, ptr noundef, i32 noundef) #1

; Function Attrs: null_pointer_is_valid
declare void @proto_register_subtree_array(ptr noundef, i32 noundef) #1

; Function Attrs: null_pointer_is_valid
declare ptr @register_dissector(ptr noundef, ptr noundef, i32 noundef) #1

; Function Attrs: null_pointer_is_valid sspstrong uwtable
define internal i32 @dissect_ioraw(ptr noundef %0, ptr noundef %1, ptr noundef %2, ptr noundef %3) #0 {
  %5 = alloca ptr, align 8
  %6 = alloca ptr, align 8
  %7 = alloca ptr, align 8
  %8 = alloca ptr, align 8
  %9 = alloca ptr, align 8
  %10 = alloca ptr, align 8
  %11 = alloca i32, align 4
  %12 = alloca [200 x i8], align 16
  %13 = alloca i32, align 4
  %14 = alloca i32, align 4
  store ptr %0, ptr %5, align 8
  store ptr %1, ptr %6, align 8
  store ptr %2, ptr %7, align 8
  store ptr %3, ptr %8, align 8
  call void @llvm.lifetime.start.p0(i64 8, ptr %9) #4
  call void @llvm.lifetime.start.p0(i64 8, ptr %10) #4
  call void @llvm.lifetime.start.p0(i64 4, ptr %11) #4
  store i32 0, ptr %11, align 4
  call void @llvm.lifetime.start.p0(i64 200, ptr %12) #4
  call void @llvm.lifetime.start.p0(i64 4, ptr %13) #4
  store i32 199, ptr %13, align 4
  call void @llvm.lifetime.start.p0(i64 4, ptr %14) #4
  %15 = load ptr, ptr %5, align 8
  %16 = call i32 @tvb_reported_length(ptr noundef %15)
  store i32 %16, ptr %14, align 4
  %17 = load ptr, ptr %6, align 8
  %18 = getelementptr inbounds nuw %struct._packet_info, ptr %17, i32 0, i32 1
  %19 = load ptr, ptr %18, align 8
  call void @col_set_str(ptr noundef %19, i32 noundef 35, ptr noundef @.str.5)
  %20 = getelementptr inbounds [200 x i8], ptr %12, i64 0, i64 0
  %21 = load i32, ptr %13, align 4
  call void @IoRawSummaryFormater(ptr noundef %20, i32 noundef %21)
  %22 = load ptr, ptr %6, align 8
  %23 = getelementptr inbounds nuw %struct._packet_info, ptr %22, i32 0, i32 1
  %24 = load ptr, ptr %23, align 8
  %25 = getelementptr inbounds [200 x i8], ptr %12, i64 0, i64 0
  call void @col_add_str(ptr noundef %24, i32 noundef 25, ptr noundef %25)
  %26 = load ptr, ptr %7, align 8
  %27 = icmp ne ptr %26, null
  br i1 %27, label %28, label %53

28:                                               ; preds = %4
  %29 = load ptr, ptr %7, align 8
  %30 = load i32, ptr @proto_ioraw, align 4
  %31 = load ptr, ptr %5, align 8
  %32 = call ptr @proto_tree_add_item(ptr noundef %29, i32 noundef %30, ptr noundef %31, i32 noundef 0, i32 noundef -1, i32 noundef 0)
  store ptr %32, ptr %9, align 8
  %33 = load ptr, ptr %9, align 8
  %34 = load i32, ptr @ett_ioraw, align 4
  %35 = call ptr @proto_item_add_subtree(ptr noundef %33, i32 noundef %34)
  store ptr %35, ptr %10, align 8
  %36 = load ptr, ptr %9, align 8
  %37 = getelementptr inbounds [200 x i8], ptr %12, i64 0, i64 0
  call void (ptr, ptr, ...) @proto_item_append_text(ptr noundef %36, ptr noundef @.str.8, ptr noundef %37)
  %38 = load ptr, ptr %10, align 8
  %39 = load i32, ptr @hf_ioraw_header, align 4
  %40 = load ptr, ptr %5, align 8
  %41 = load i32, ptr %11, align 4
  %42 = call ptr @proto_tree_add_item(ptr noundef %38, i32 noundef %39, ptr noundef %40, i32 noundef %41, i32 noundef 4, i32 noundef 0)
  %43 = load i32, ptr %11, align 4
  %44 = add i32 %43, 4
  store i32 %44, ptr %11, align 4
  %45 = load ptr, ptr %10, align 8
  %46 = load i32, ptr @hf_ioraw_data, align 4
  %47 = load ptr, ptr %5, align 8
  %48 = load i32, ptr %11, align 4
  %49 = load i32, ptr %14, align 4
  %50 = load i32, ptr %11, align 4
  %51 = sub i32 %49, %50
  %52 = call ptr @proto_tree_add_item(ptr noundef %45, i32 noundef %46, ptr noundef %47, i32 noundef %48, i32 noundef %51, i32 noundef 0)
  br label %53

53:                                               ; preds = %28, %4
  %54 = load ptr, ptr %5, align 8
  %55 = call i32 @tvb_captured_length(ptr noundef %54)
  call void @llvm.lifetime.end.p0(i64 4, ptr %14) #4
  call void @llvm.lifetime.end.p0(i64 4, ptr %13) #4
  call void @llvm.lifetime.end.p0(i64 200, ptr %12) #4
  call void @llvm.lifetime.end.p0(i64 4, ptr %11) #4
  call void @llvm.lifetime.end.p0(i64 8, ptr %10) #4
  call void @llvm.lifetime.end.p0(i64 8, ptr %9) #4
  ret i32 %55
}

; Function Attrs: null_pointer_is_valid sspstrong uwtable
define hidden void @proto_reg_handoff_ioraw() #0 {
  %1 = load ptr, ptr @ioraw_handle, align 8
  call void @dissector_add_uint(ptr noundef @.str.7, i32 noundef 3, ptr noundef %1)
  ret void
}

; Function Attrs: null_pointer_is_valid
declare void @dissector_add_uint(ptr noundef, i32 noundef, ptr noundef) #1

; Function Attrs: nocallback nofree nosync nounwind willreturn memory(argmem: readwrite)
declare void @llvm.lifetime.start.p0(i64 immarg, ptr captures(none)) #2

; Function Attrs: null_pointer_is_valid
declare i32 @tvb_reported_length(ptr noundef) #1

; Function Attrs: null_pointer_is_valid
declare void @col_set_str(ptr noundef, i32 noundef, ptr noundef) #1

; Function Attrs: null_pointer_is_valid sspstrong uwtable
define internal void @IoRawSummaryFormater(ptr noundef %0, i32 noundef %1) #0 {
  %3 = alloca ptr, align 8
  %4 = alloca i32, align 4
  store ptr %0, ptr %3, align 8
  store i32 %1, ptr %4, align 4
  %5 = load ptr, ptr %3, align 8
  %6 = load i32, ptr %4, align 4
  %7 = sext i32 %6 to i64
  %8 = load ptr, ptr %3, align 8
  %9 = call i64 @llvm.objectsize.i64.p0(ptr %8, i1 false, i1 true, i1 true)
  %10 = call i32 (ptr, i64, i32, i64, ptr, ...) @__snprintf_chk(ptr noundef %5, i64 noundef %7, i32 noundef 2, i64 noundef %9, ptr noundef @.str.9)
  ret void
}

; Function Attrs: null_pointer_is_valid
declare void @col_add_str(ptr noundef, i32 noundef, ptr noundef) #1

; Function Attrs: null_pointer_is_valid
declare ptr @proto_tree_add_item(ptr noundef, i32 noundef, ptr noundef, i32 noundef, i32 noundef, i32 noundef) #1

; Function Attrs: null_pointer_is_valid
declare ptr @proto_item_add_subtree(ptr noundef, i32 noundef) #1

; Function Attrs: null_pointer_is_valid
declare void @proto_item_append_text(ptr noundef, ptr noundef, ...) #1

; Function Attrs: null_pointer_is_valid
declare i32 @tvb_captured_length(ptr noundef) #1

; Function Attrs: nocallback nofree nosync nounwind willreturn memory(argmem: readwrite)
declare void @llvm.lifetime.end.p0(i64 immarg, ptr captures(none)) #2

; Function Attrs: null_pointer_is_valid
declare i32 @__snprintf_chk(ptr noundef, i64 noundef, i32 noundef, i64 noundef, ptr noundef, ...) #1

; Function Attrs: nocallback nofree nosync nounwind speculatable willreturn memory(none)
declare i64 @llvm.objectsize.i64.p0(ptr, i1 immarg, i1 immarg, i1 immarg) #3


!llvm.module.flags = !{!0, !1, !2, !3, !4, !5}

!0 = !{i32 1, !"wchar_size", i32 4}
!1 = !{i32 8, !"cf-protection-return", i32 1}
!2 = !{i32 8, !"cf-protection-branch", i32 1}
!3 = !{i32 4, !"probe-stack", !"inline-asm"}
!4 = !{i32 8, !"PIC Level", i32 2}
!5 = !{i32 7, !"uwtable", i32 2}
